target datalayout = "e-m:e-p270:32:32-p271:32:32-p272:64:64-i64:64-i128:128-f80:128-n8:16:32:64-S128"
target triple = "x86_64-unknown-linux-gnu"

%"class.icu_75::UObject" = type { ptr }
%"class.icu_75::UVector32" = type { %"class.icu_75::UObject", i32, i32, i32, ptr }
%"class.icu_75::Vectorizer" = type { ptr, ptr }
%struct.UHashtable = type { ptr, ptr, ptr, ptr, ptr, ptr, i32, i32, i32, i32, float, float, i8, i8 }

; Function Attrs: mustprogress uwtable
define linkonce_odr noundef i32 @_ZNK6icu_7510Vectorizer13stringToIndexEPKDs(ptr noundef nonnull align 8 dereferenceable(16) %this, ptr noundef %str) #1 comdat align 2 {
entry:
  %this.addr = alloca ptr, align 8
  %str.addr = alloca ptr, align 8
  %found = alloca i8, align 1
  %ret = alloca i32, align 4
  store ptr %this, ptr %this.addr, align 8
  store ptr %str, ptr %str.addr, align 8
  %this1 = load ptr, ptr %this.addr, align 8
  store i8 0, ptr %found, align 1
  %fDict = getelementptr inbounds %"class.icu_75::Vectorizer", ptr %this1, i32 0, i32 1
  %0 = load ptr, ptr %fDict, align 8
  %1 = load ptr, ptr %str.addr, align 8
  %call = call i32 @uhash_getiAndFound_75(ptr noundef %0, ptr noundef %1, ptr noundef %found)
  store i32 %call, ptr %ret, align 4
  %2 = load i8, ptr %found, align 1
  %tobool = icmp ne i8 %2, 0
  br i1 %tobool, label %if.end, label %if.then

if.then:                                          ; preds = %entry
  %fDict2 = getelementptr inbounds %"class.icu_75::Vectorizer", ptr %this1, i32 0, i32 1
  %3 = load ptr, ptr %fDict2, align 8
  %count = getelementptr inbounds %struct.UHashtable, ptr %3, i32 0, i32 6
  %4 = load i32, ptr %count, align 8
  store i32 %4, ptr %ret, align 4
  br label %if.end

if.end:                                           ; preds = %if.then, %entry
  %5 = load i32, ptr %ret, align 4
  ret i32 %5
}

; Function Attrs: mustprogress uwtable
define linkonce_odr void @_ZN6icu_759UVector3210addElementEiR10UErrorCode(ptr noundef nonnull align 8 dereferenceable(32) %this, i32 noundef %elem, ptr noundef nonnull align 4 dereferenceable(4) %status) #1 comdat align 2 {
entry:
  %this.addr = alloca ptr, align 8
  %elem.addr = alloca i32, align 4
  %status.addr = alloca ptr, align 8
  store ptr %this, ptr %this.addr, align 8
  store i32 %elem, ptr %elem.addr, align 4
  store ptr %status, ptr %status.addr, align 8
  %this1 = load ptr, ptr %this.addr, align 8
  %count = getelementptr inbounds %"class.icu_75::UVector32", ptr %this1, i32 0, i32 1
  %0 = load i32, ptr %count, align 8
  %add = add nsw i32 %0, 1
  %1 = load ptr, ptr %status.addr, align 8
  %call = call noundef signext i8 @_ZN6icu_759UVector3214ensureCapacityEiR10UErrorCode(ptr noundef nonnull align 8 dereferenceable(32) %this1, i32 noundef %add, ptr noundef nonnull align 4 dereferenceable(4) %1)
  %tobool = icmp ne i8 %call, 0
  br i1 %tobool, label %if.then, label %if.end

if.then:                                          ; preds = %entry
  %2 = load i32, ptr %elem.addr, align 4
  %elements = getelementptr inbounds %"class.icu_75::UVector32", ptr %this1, i32 0, i32 4
  %3 = load ptr, ptr %elements, align 8
  %count2 = getelementptr inbounds %"class.icu_75::UVector32", ptr %this1, i32 0, i32 1
  %4 = load i32, ptr %count2, align 8
  %idxprom = sext i32 %4 to i64
  %arrayidx = getelementptr inbounds i32, ptr %3, i64 %idxprom
  store i32 %2, ptr %arrayidx, align 4
  %count3 = getelementptr inbounds %"class.icu_75::UVector32", ptr %this1, i32 0, i32 1
  %5 = load i32, ptr %count3, align 8
  %inc = add nsw i32 %5, 1
  store i32 %inc, ptr %count3, align 8
  br label %if.end

if.end:                                           ; preds = %if.then, %entry
  ret void
}

; Function Attrs: mustprogress nounwind uwtable
define internal noundef signext i8 @_ZL9U_SUCCESS10UErrorCode(i32 noundef %code) #0 {
entry:
  %code.addr = alloca i32, align 4
  store i32 %code, ptr %code.addr, align 4
  %0 = load i32, ptr %code.addr, align 4
  %cmp = icmp sle i32 %0, 0
  %conv = zext i1 %cmp to i8
  ret i8 %conv
}

; Function Attrs: mustprogress nounwind uwtable
define internal noundef signext i8 @_ZL9U_FAILURE10UErrorCode(i32 noundef %code) #0 {
entry:
  %code.addr = alloca i32, align 4
  store i32 %code, ptr %code.addr, align 4
  %0 = load i32, ptr %code.addr, align 4
  %cmp = icmp sgt i32 %0, 0
  %conv = zext i1 %cmp to i8
  ret i8 %conv
}

; Function Attrs: mustprogress uwtable
define linkonce_odr noundef signext i8 @_ZN6icu_759UVector3214ensureCapacityEiR10UErrorCode(ptr noundef nonnull align 8 dereferenceable(32) %this, i32 noundef %minimumCapacity, ptr noundef nonnull align 4 dereferenceable(4) %status) #1 comdat align 2 {
entry:
  %retval = alloca i8, align 1
  %this.addr = alloca ptr, align 8
  %minimumCapacity.addr = alloca i32, align 4
  %status.addr = alloca ptr, align 8
  store ptr %this, ptr %this.addr, align 8
  store i32 %minimumCapacity, ptr %minimumCapacity.addr, align 4
  store ptr %status, ptr %status.addr, align 8
  %this1 = load ptr, ptr %this.addr, align 8
  %0 = load i32, ptr %minimumCapacity.addr, align 4
  %cmp = icmp sge i32 %0, 0
  br i1 %cmp, label %land.lhs.true, label %if.else

land.lhs.true:                                    ; preds = %entry
  %capacity = getelementptr inbounds %"class.icu_75::UVector32", ptr %this1, i32 0, i32 2
  %1 = load i32, ptr %capacity, align 4
  %2 = load i32, ptr %minimumCapacity.addr, align 4
  %cmp2 = icmp sge i32 %1, %2
  br i1 %cmp2, label %if.then, label %if.else

if.then:                                          ; preds = %land.lhs.true
  store i8 1, ptr %retval, align 1
  br label %return

if.else:                                          ; preds = %land.lhs.true, %entry
  %3 = load i32, ptr %minimumCapacity.addr, align 4
  %4 = load ptr, ptr %status.addr, align 8
  %call = call noundef signext i8 @_ZN6icu_759UVector3214expandCapacityEiR10UErrorCode(ptr noundef nonnull align 8 dereferenceable(32) %this1, i32 noundef %3, ptr noundef nonnull align 4 dereferenceable(4) %4)
  store i8 %call, ptr %retval, align 1
  br label %return

return:                                           ; preds = %if.else, %if.then
  %5 = load i8, ptr %retval, align 1
  ret i8 %5
}

; Function Attrs: mustprogress uwtable
define void @_ZNK6icu_7520CodePointsVectorizer9vectorizeEP5UTextiiRNS_9UVector32ES4_R10UErrorCode(ptr noundef nonnull align 8 dereferenceable(16) %this, ptr noundef %text, i32 noundef %startPos, i32 noundef %endPos, ptr noundef nonnull align 8 dereferenceable(32) %offsets, ptr noundef nonnull align 8 dereferenceable(32) %indices, ptr noundef nonnull align 4 dereferenceable(4) %status) unnamed_addr #1 align 2 {
entry:
  %this.addr = alloca ptr, align 8
  %text.addr = alloca ptr, align 8
  %startPos.addr = alloca i32, align 4
  %endPos.addr = alloca i32, align 4
  %offsets.addr = alloca ptr, align 8
  %indices.addr = alloca ptr, align 8
  %status.addr = alloca ptr, align 8
  %current = alloca i32, align 4
  %str = alloca [2 x i16], align 2
  store ptr %this, ptr %this.addr, align 8
  store ptr %text, ptr %text.addr, align 8
  store i32 %startPos, ptr %startPos.addr, align 4
  store i32 %endPos, ptr %endPos.addr, align 4
  store ptr %offsets, ptr %offsets.addr, align 8
  store ptr %indices, ptr %indices.addr, align 8
  store ptr %status, ptr %status.addr, align 8
  %this1 = load ptr, ptr %this.addr, align 8
  %0 = load ptr, ptr %offsets.addr, align 8
  %1 = load i32, ptr %endPos.addr, align 4
  %2 = load i32, ptr %startPos.addr, align 4
  %sub = sub nsw i32 %1, %2
  %3 = load ptr, ptr %status.addr, align 8
  %call = call noundef signext i8 @_ZN6icu_759UVector3214ensureCapacityEiR10UErrorCode(ptr noundef nonnull align 8 dereferenceable(32) %0, i32 noundef %sub, ptr noundef nonnull align 4 dereferenceable(4) %3)
  %tobool = icmp ne i8 %call, 0
  br i1 %tobool, label %land.lhs.true, label %if.end15

land.lhs.true:                                    ; preds = %entry
  %4 = load ptr, ptr %indices.addr, align 8
  %5 = load i32, ptr %endPos.addr, align 4
  %6 = load i32, ptr %startPos.addr, align 4
  %sub2 = sub nsw i32 %5, %6
  %7 = load ptr, ptr %status.addr, align 8
  %call3 = call noundef signext i8 @_ZN6icu_759UVector3214ensureCapacityEiR10UErrorCode(ptr noundef nonnull align 8 dereferenceable(32) %4, i32 noundef %sub2, ptr noundef nonnull align 4 dereferenceable(4) %7)
  %tobool4 = icmp ne i8 %call3, 0
  br i1 %tobool4, label %if.then, label %if.end15

if.then:                                          ; preds = %land.lhs.true
  %8 = load ptr, ptr %status.addr, align 8
  %9 = load i32, ptr %8, align 4
  %call5 = call noundef signext i8 @_ZL9U_FAILURE10UErrorCode(i32 noundef %9)
  %tobool6 = icmp ne i8 %call5, 0
  br i1 %tobool6, label %if.then7, label %if.end

if.then7:                                         ; preds = %if.then
  br label %if.end15

if.end:                                           ; preds = %if.then
  %10 = load ptr, ptr %text.addr, align 8
  %11 = load i32, ptr %startPos.addr, align 4
  %conv = sext i32 %11 to i64
  call void @utext_setNativeIndex_75(ptr noundef %10, i64 noundef %conv)
  call void @llvm.memset.p0.i64(ptr align 2 %str, i8 0, i64 4, i1 false)
  br label %while.cond

while.cond:                                       ; preds = %while.body, %if.end
  %12 = load ptr, ptr %status.addr, align 8
  %13 = load i32, ptr %12, align 4
  %call8 = call noundef signext i8 @_ZL9U_SUCCESS10UErrorCode(i32 noundef %13)
  %tobool9 = icmp ne i8 %call8, 0
  br i1 %tobool9, label %land.rhs, label %land.end

land.rhs:                                         ; preds = %while.cond
  %14 = load ptr, ptr %text.addr, align 8
  %call10 = call i64 @utext_getNativeIndex_75(ptr noundef %14)
  %conv11 = trunc i64 %call10 to i32
  store i32 %conv11, ptr %current, align 4
  %15 = load i32, ptr %endPos.addr, align 4
  %cmp = icmp slt i32 %conv11, %15
  br label %land.end

land.end:                                         ; preds = %land.rhs, %while.cond
  %16 = phi i1 [ false, %while.cond ], [ %cmp, %land.rhs ]
  br i1 %16, label %while.body, label %while.end

while.body:                                       ; preds = %land.end
  %17 = load ptr, ptr %text.addr, align 8
  %call12 = call i32 @utext_next32_75(ptr noundef %17)
  %conv13 = trunc i32 %call12 to i16
  %arrayidx = getelementptr inbounds [2 x i16], ptr %str, i64 0, i64 0
  store i16 %conv13, ptr %arrayidx, align 2
  %18 = load ptr, ptr %offsets.addr, align 8
  %19 = load i32, ptr %current, align 4
  %20 = load ptr, ptr %status.addr, align 8
  call void @_ZN6icu_759UVector3210addElementEiR10UErrorCode(ptr noundef nonnull align 8 dereferenceable(32) %18, i32 noundef %19, ptr noundef nonnull align 4 dereferenceable(4) %20)
  %21 = load ptr, ptr %indices.addr, align 8
  %arraydecay = getelementptr inbounds [2 x i16], ptr %str, i64 0, i64 0
  %call14 = call noundef i32 @_ZNK6icu_7510Vectorizer13stringToIndexEPKDs(ptr noundef nonnull align 8 dereferenceable(16) %this1, ptr noundef %arraydecay)
  %22 = load ptr, ptr %status.addr, align 8
  call void @_ZN6icu_759UVector3210addElementEiR10UErrorCode(ptr noundef nonnull align 8 dereferenceable(32) %21, i32 noundef %call14, ptr noundef nonnull align 4 dereferenceable(4) %22)
  br label %while.cond, !llvm.loop !6

while.end:                                        ; preds = %land.end
  br label %if.end15

if.end15:                                         ; preds = %while.end, %if.then7, %land.lhs.true, %entry
  ret void
}