; Function Attrs: mustprogress uwtable
define void @_ZNK6icu_7520CodePointsVectorizer9vectorizeEP5UTextiiRNS_9UVector32ES4_R10UErrorCode(ptr nocapture noundef nonnull readonly align 8 dereferenceable(16) %this, ptr noundef %text, i32 noundef %startPos, i32 noundef %endPos, ptr noundef nonnull align 8 dereferenceable(32) %offsets, ptr noundef nonnull align 8 dereferenceable(32) %indices, ptr noundef nonnull align 4 dereferenceable(4) %status) unnamed_addr #1 align 2 {
entry:
  %found.i = alloca i8, align 1
  %str = alloca [2 x i16], align 4
  %sub = sub nsw i32 %endPos, %startPos
  %cmp.i = icmp slt i32 %sub, 0
  %capacity.i = getelementptr inbounds i8, ptr %offsets, i64 12
  %0 = load i32, ptr %capacity.i, align 4
  %cmp2.not.i = icmp slt i32 %0, %sub
  %or.cond.i = select i1 %cmp.i, i1 true, i1 %cmp2.not.i
  br i1 %or.cond.i, label %_ZN6icu_759UVector3214ensureCapacityEiR10UErrorCode.exit, label %land.lhs.true

_ZN6icu_759UVector3214ensureCapacityEiR10UErrorCode.exit: ; preds = %entry
  %call.i = tail call noundef signext i8 @_ZN6icu_759UVector3214expandCapacityEiR10UErrorCode(ptr noundef nonnull align 8 dereferenceable(32) %offsets, i32 noundef %sub, ptr noundef nonnull align 4 dereferenceable(4) %status)
  %tobool.not = icmp eq i8 %call.i, 0
  br i1 %tobool.not, label %if.end15, label %land.lhs.true

land.lhs.true:                                    ; preds = %entry, %_ZN6icu_759UVector3214ensureCapacityEiR10UErrorCode.exit
  %capacity.i15 = getelementptr inbounds i8, ptr %indices, i64 12
  %1 = load i32, ptr %capacity.i15, align 4
  %cmp2.not.i16 = icmp slt i32 %1, %sub
  %or.cond.i17 = select i1 %cmp.i, i1 true, i1 %cmp2.not.i16
  br i1 %or.cond.i17, label %_ZN6icu_759UVector3214ensureCapacityEiR10UErrorCode.exit21, label %if.then

_ZN6icu_759UVector3214ensureCapacityEiR10UErrorCode.exit21: ; preds = %land.lhs.true
  %call.i20 = tail call noundef signext i8 @_ZN6icu_759UVector3214expandCapacityEiR10UErrorCode(ptr noundef nonnull align 8 dereferenceable(32) %indices, i32 noundef %sub, ptr noundef nonnull align 4 dereferenceable(4) %status)
  %tobool4.not = icmp ne i8 %call.i20, 0
  %2 = load i32, ptr %status, align 4
  %cmp.i22 = icmp slt i32 %2, 1
  %or.cond = select i1 %tobool4.not, i1 %cmp.i22, i1 false
  br i1 %or.cond, label %if.end, label %if.end15

if.then:                                          ; preds = %land.lhs.true
  %.old = load i32, ptr %status, align 4
  %cmp.i22.old = icmp slt i32 %.old, 1
  br i1 %cmp.i22.old, label %if.end, label %if.end15

if.end:                                           ; preds = %_ZN6icu_759UVector3214ensureCapacityEiR10UErrorCode.exit21, %if.then
  %conv = sext i32 %startPos to i64
  tail call void @utext_setNativeIndex_75(ptr noundef %text, i64 noundef %conv)
  store i32 0, ptr %str, align 4
  %3 = load i32, ptr %status, align 4
  %cmp.i2350 = icmp sgt i32 %3, 0
  br i1 %cmp.i2350, label %if.end15, label %land.rhs.lr.ph

land.rhs.lr.ph:                                   ; preds = %if.end
  %count.i = getelementptr inbounds i8, ptr %offsets, i64 8
  %elements.i = getelementptr inbounds i8, ptr %offsets, i64 24
  %fDict.i = getelementptr inbounds i8, ptr %this, i64 8
  %count.i29 = getelementptr inbounds i8, ptr %indices, i64 8
  %elements.i35 = getelementptr inbounds i8, ptr %indices, i64 24
  br label %land.rhs

land.rhs:                                         ; preds = %land.rhs.lr.ph, %_ZN6icu_759UVector3210addElementEiR10UErrorCode.exit45
  %call10 = call i64 @utext_getNativeIndex_75(ptr noundef %text)
  %conv11 = trunc i64 %call10 to i32
  %cmp = icmp slt i32 %conv11, %endPos
  br i1 %cmp, label %while.body, label %if.end15

while.body:                                       ; preds = %land.rhs
  %call12 = call i32 @utext_next32_75(ptr noundef %text)
  %conv13 = trunc i32 %call12 to i16
  store i16 %conv13, ptr %str, align 4
  %4 = load i32, ptr %count.i, align 8
  %cmp.i.i = icmp slt i32 %4, -1
  %5 = load i32, ptr %capacity.i, align 4
  %cmp2.not.i.i = icmp sle i32 %5, %4
  %or.cond.i.i = select i1 %cmp.i.i, i1 true, i1 %cmp2.not.i.i
  br i1 %or.cond.i.i, label %_ZN6icu_759UVector3214ensureCapacityEiR10UErrorCode.exit.i, label %if.then.i

_ZN6icu_759UVector3214ensureCapacityEiR10UErrorCode.exit.i: ; preds = %while.body
  %add.i = add nsw i32 %4, 1
  %call.i.i = call noundef signext i8 @_ZN6icu_759UVector3214expandCapacityEiR10UErrorCode(ptr noundef nonnull align 8 dereferenceable(32) %offsets, i32 noundef %add.i, ptr noundef nonnull align 4 dereferenceable(4) %status)
  %tobool.not.i = icmp eq i8 %call.i.i, 0
  br i1 %tobool.not.i, label %_ZN6icu_759UVector3210addElementEiR10UErrorCode.exit, label %_ZN6icu_759UVector3214ensureCapacityEiR10UErrorCode.exit.if.then_crit_edge.i

_ZN6icu_759UVector3214ensureCapacityEiR10UErrorCode.exit.if.then_crit_edge.i: ; preds = %_ZN6icu_759UVector3214ensureCapacityEiR10UErrorCode.exit.i
  %.pre.i = load i32, ptr %count.i, align 8
  br label %if.then.i

if.then.i:                                        ; preds = %_ZN6icu_759UVector3214ensureCapacityEiR10UErrorCode.exit.if.then_crit_edge.i, %while.body
  %6 = phi i32 [ %.pre.i, %_ZN6icu_759UVector3214ensureCapacityEiR10UErrorCode.exit.if.then_crit_edge.i ], [ %4, %while.body ]
  %7 = load ptr, ptr %elements.i, align 8
  %idxprom.i = sext i32 %6 to i64
  %arrayidx.i = getelementptr inbounds i32, ptr %7, i64 %idxprom.i
  store i32 %conv11, ptr %arrayidx.i, align 4
  %8 = load i32, ptr %count.i, align 8
  %inc.i = add nsw i32 %8, 1
  store i32 %inc.i, ptr %count.i, align 8
  br label %_ZN6icu_759UVector3210addElementEiR10UErrorCode.exit

_ZN6icu_759UVector3210addElementEiR10UErrorCode.exit: ; preds = %_ZN6icu_759UVector3214ensureCapacityEiR10UErrorCode.exit.i, %if.then.i
  call void @llvm.lifetime.start.p0(i64 1, ptr nonnull %found.i)
  store i8 0, ptr %found.i, align 1
  %9 = load ptr, ptr %fDict.i, align 8
  %call.i25 = call i32 @uhash_getiAndFound_75(ptr noundef %9, ptr noundef nonnull %str, ptr noundef nonnull %found.i)
  %10 = load i8, ptr %found.i, align 1
  %tobool.not.i26 = icmp eq i8 %10, 0
  br i1 %tobool.not.i26, label %if.then.i27, label %_ZNK6icu_7510Vectorizer13stringToIndexEPKDs.exit

if.then.i27:                                      ; preds = %_ZN6icu_759UVector3210addElementEiR10UErrorCode.exit
  %11 = load ptr, ptr %fDict.i, align 8
  %count.i28 = getelementptr inbounds i8, ptr %11, i64 48
  %12 = load i32, ptr %count.i28, align 8
  br label %_ZNK6icu_7510Vectorizer13stringToIndexEPKDs.exit

_ZNK6icu_7510Vectorizer13stringToIndexEPKDs.exit: ; preds = %_ZN6icu_759UVector3210addElementEiR10UErrorCode.exit, %if.then.i27
  %ret.0.i = phi i32 [ %call.i25, %_ZN6icu_759UVector3210addElementEiR10UErrorCode.exit ], [ %12, %if.then.i27 ]
  call void @llvm.lifetime.end.p0(i64 1, ptr nonnull %found.i)
  %13 = load i32, ptr %count.i29, align 8
  %cmp.i.i30 = icmp slt i32 %13, -1
  %14 = load i32, ptr %capacity.i15, align 4
  %cmp2.not.i.i32 = icmp sle i32 %14, %13
  %or.cond.i.i33 = select i1 %cmp.i.i30, i1 true, i1 %cmp2.not.i.i32
  br i1 %or.cond.i.i33, label %_ZN6icu_759UVector3214ensureCapacityEiR10UErrorCode.exit.i39, label %if.then.i34

_ZN6icu_759UVector3214ensureCapacityEiR10UErrorCode.exit.i39: ; preds = %_ZNK6icu_7510Vectorizer13stringToIndexEPKDs.exit
  %add.i40 = add nsw i32 %13, 1
  %call.i.i41 = call noundef signext i8 @_ZN6icu_759UVector3214expandCapacityEiR10UErrorCode(ptr noundef nonnull align 8 dereferenceable(32) %indices, i32 noundef %add.i40, ptr noundef nonnull align 4 dereferenceable(4) %status)
  %tobool.not.i42 = icmp eq i8 %call.i.i41, 0
  br i1 %tobool.not.i42, label %_ZN6icu_759UVector3210addElementEiR10UErrorCode.exit45, label %_ZN6icu_759UVector3214ensureCapacityEiR10UErrorCode.exit.if.then_crit_edge.i43

_ZN6icu_759UVector3214ensureCapacityEiR10UErrorCode.exit.if.then_crit_edge.i43: ; preds = %_ZN6icu_759UVector3214ensureCapacityEiR10UErrorCode.exit.i39
  %.pre.i44 = load i32, ptr %count.i29, align 8
  br label %if.then.i34

if.then.i34:                                      ; preds = %_ZN6icu_759UVector3214ensureCapacityEiR10UErrorCode.exit.if.then_crit_edge.i43, %_ZNK6icu_7510Vectorizer13stringToIndexEPKDs.exit
  %15 = phi i32 [ %.pre.i44, %_ZN6icu_759UVector3214ensureCapacityEiR10UErrorCode.exit.if.then_crit_edge.i43 ], [ %13, %_ZNK6icu_7510Vectorizer13stringToIndexEPKDs.exit ]
  %16 = load ptr, ptr %elements.i35, align 8
  %idxprom.i36 = sext i32 %15 to i64
  %arrayidx.i37 = getelementptr inbounds i32, ptr %16, i64 %idxprom.i36
  store i32 %ret.0.i, ptr %arrayidx.i37, align 4
  %17 = load i32, ptr %count.i29, align 8
  %inc.i38 = add nsw i32 %17, 1
  store i32 %inc.i38, ptr %count.i29, align 8
  br label %_ZN6icu_759UVector3210addElementEiR10UErrorCode.exit45

_ZN6icu_759UVector3210addElementEiR10UErrorCode.exit45: ; preds = %_ZN6icu_759UVector3214ensureCapacityEiR10UErrorCode.exit.i39, %if.then.i34
  %18 = load i32, ptr %status, align 4
  %cmp.i23 = icmp sgt i32 %18, 0
  br i1 %cmp.i23, label %if.end15, label %land.rhs, !llvm.loop !6

if.end15:                                         ; preds = %_ZN6icu_759UVector3210addElementEiR10UErrorCode.exit45, %land.rhs, %if.end, %if.then, %_ZN6icu_759UVector3214ensureCapacityEiR10UErrorCode.exit21, %_ZN6icu_759UVector3214ensureCapacityEiR10UErrorCode.exit
  ret void
}